target datalayout = "e-m:e-p270:32:32-p271:32:32-p272:64:64-i64:64-i128:128-f80:128-n8:16:32:64-S128"
target triple = "x86_64-pc-linux-gnu"

%struct.pm_constant_pool_t = type { ptr, ptr, i32, i32 }
%struct.pm_constant_t = type { ptr, i64 }
%struct.pm_constant_pool_bucket_t = type { i32, i32 }

; Function Attrs: nounwind sspstrong uwtable
define hidden void @pm_constant_pool_free(ptr noundef %0) #0 {
  %2 = alloca ptr, align 8
  %3 = alloca i32, align 4
  %4 = alloca ptr, align 8
  %5 = alloca ptr, align 8
  store ptr %0, ptr %2, align 8, !tbaa !7
  call void @llvm.lifetime.start.p0(i64 4, ptr %3) #14
  store i32 0, ptr %3, align 4, !tbaa !18
  br label %6

6:                                                ; preds = %43, %1
  %7 = load i32, ptr %3, align 4, !tbaa !18
  %8 = load ptr, ptr %2, align 8, !tbaa !7
  %9 = getelementptr inbounds nuw %struct.pm_constant_pool_t, ptr %8, i32 0, i32 3
  %10 = load i32, ptr %9, align 4, !tbaa !26
  %11 = icmp ult i32 %7, %10
  br i1 %11, label %13, label %12

12:                                               ; preds = %6
  call void @llvm.lifetime.end.p0(i64 4, ptr %3) #14
  br label %46

13:                                               ; preds = %6
  call void @llvm.lifetime.start.p0(i64 8, ptr %4) #14
  %14 = load ptr, ptr %2, align 8, !tbaa !7
  %15 = getelementptr inbounds nuw %struct.pm_constant_pool_t, ptr %14, i32 0, i32 0
  %16 = load ptr, ptr %15, align 8, !tbaa !22
  %17 = load i32, ptr %3, align 4, !tbaa !18
  %18 = zext i32 %17 to i64
  %19 = getelementptr %struct.pm_constant_pool_bucket_t, ptr %16, i64 %18
  store ptr %19, ptr %4, align 8, !tbaa !7
  %20 = load ptr, ptr %4, align 8, !tbaa !7
  %21 = load i32, ptr %20, align 4
  %22 = and i32 %21, 1073741823
  %23 = icmp ne i32 %22, 0
  br i1 %23, label %24, label %42

24:                                               ; preds = %13
  %25 = load ptr, ptr %4, align 8, !tbaa !7
  %26 = load i32, ptr %25, align 4
  %27 = lshr i32 %26, 30
  %28 = icmp eq i32 %27, 1
  br i1 %28, label %29, label %42

29:                                               ; preds = %24
  call void @llvm.lifetime.start.p0(i64 8, ptr %5) #14
  %30 = load ptr, ptr %2, align 8, !tbaa !7
  %31 = getelementptr inbounds nuw %struct.pm_constant_pool_t, ptr %30, i32 0, i32 1
  %32 = load ptr, ptr %31, align 8, !tbaa !24
  %33 = load ptr, ptr %4, align 8, !tbaa !7
  %34 = load i32, ptr %33, align 4
  %35 = and i32 %34, 1073741823
  %36 = sub i32 %35, 1
  %37 = sext i32 %36 to i64
  %38 = getelementptr %struct.pm_constant_t, ptr %32, i64 %37
  store ptr %38, ptr %5, align 8, !tbaa !7
  %39 = load ptr, ptr %5, align 8, !tbaa !7
  %40 = getelementptr inbounds nuw %struct.pm_constant_t, ptr %39, i32 0, i32 0
  %41 = load ptr, ptr %40, align 8, !tbaa !31
  call void @free(ptr noundef %41) #14
  call void @llvm.lifetime.end.p0(i64 8, ptr %5) #14
  br label %42

42:                                               ; preds = %29, %24, %13
  call void @llvm.lifetime.end.p0(i64 8, ptr %4) #14
  br label %43

43:                                               ; preds = %42
  %44 = load i32, ptr %3, align 4, !tbaa !18
  %45 = add i32 %44, 1
  store i32 %45, ptr %3, align 4, !tbaa !18
  br label %6, !llvm.loop !40

46:                                               ; preds = %12
  %47 = load ptr, ptr %2, align 8, !tbaa !7
  %48 = getelementptr inbounds nuw %struct.pm_constant_pool_t, ptr %47, i32 0, i32 0
  %49 = load ptr, ptr %48, align 8, !tbaa !22
  call void @free(ptr noundef %49) #14
  ret void
}