; Function Attrs: nounwind sspstrong uwtable
define hidden void @pm_constant_pool_free(ptr noundef readonly captures(none) %0) local_unnamed_addr #12 {
  %2 = getelementptr inbounds nuw i8, ptr %0, i64 20
  %3 = load i32, ptr %2, align 4, !tbaa !24
  %.not12 = icmp eq i32 %3, 0
  br i1 %.not12, label %._crit_edge, label %.lr.ph

.lr.ph:                                           ; preds = %1
  %4 = getelementptr inbounds nuw i8, ptr %0, i64 8
  br label %6

._crit_edge:                                      ; preds = %19, %1
  %5 = load ptr, ptr %0, align 8, !tbaa !20
  tail call void @free(ptr noundef %5) #20
  ret void

6:                                                ; preds = %.lr.ph, %19
  %7 = phi i32 [ %3, %.lr.ph ], [ %20, %19 ]
  %indvars.iv = phi i64 [ 0, %.lr.ph ], [ %indvars.iv.next, %19 ]
  %8 = load ptr, ptr %0, align 8, !tbaa !20
  %9 = getelementptr %struct.pm_constant_pool_bucket_t, ptr %8, i64 %indvars.iv
  %10 = load i32, ptr %9, align 4
  %11 = and i32 %10, 1073741823
  %.not = icmp ne i32 %11, 0
  %.mask = and i32 %10, -1073741824
  %12 = icmp eq i32 %.mask, 1073741824
  %or.cond = and i1 %.not, %12
  br i1 %or.cond, label %13, label %19

13:                                               ; preds = %6
  %14 = load ptr, ptr %4, align 8, !tbaa !22
  %15 = zext nneg i32 %11 to i64
  %16 = getelementptr %struct.pm_constant_t, ptr %14, i64 %15
  %17 = getelementptr i8, ptr %16, i64 -16
  %18 = load ptr, ptr %17, align 8, !tbaa !30
  tail call void @free(ptr noundef %18) #20
  %.pre = load i32, ptr %2, align 4, !tbaa !24
  br label %19

19:                                               ; preds = %13, %6
  %20 = phi i32 [ %.pre, %13 ], [ %7, %6 ]
  %indvars.iv.next = add nuw nsw i64 %indvars.iv, 1
  %21 = zext i32 %20 to i64
  %22 = icmp samesign ult i64 %indvars.iv.next, %21
  br i1 %22, label %6, label %._crit_edge, !llvm.loop !39
}